; Function Attrs: nounwind uwtable
define ptr @l_Array_mapMUnsafe_map___at_Lean_Meta_caseArraySizes___spec__2(ptr noundef %0, i64 noundef %1, i64 noundef %2, ptr noundef %3) local_unnamed_addr #1 {
  %.not44 = icmp ult i64 %2, %1
  br i1 %.not44, label %.lr.ph, label %._crit_edge

.lr.ph:                                           ; preds = %4, %58
  %.02146 = phi i64 [ %42, %58 ], [ %2, %4 ]
  %.02345 = phi ptr [ %.0.i.i32, %58 ], [ %3, %4 ]
  %5 = getelementptr inbounds nuw i8, ptr %.02345, i64 24
  %6 = getelementptr inbounds nuw [0 x ptr], ptr %5, i64 0, i64 %.02146
  %7 = load ptr, ptr %6, align 8, !tbaa !11
  %8 = ptrtoint ptr %7 to i64
  %9 = and i64 %8, 1
  %.not.i26 = icmp eq i64 %9, 0
  br i1 %.not.i26, label %10, label %lean_array_uget.exit

10:                                               ; preds = %.lr.ph
  %.val.i.i = load i32, ptr %7, align 4, !tbaa !4
  %11 = icmp sgt i32 %.val.i.i, 0
  br i1 %11, label %12, label %14, !prof !13

12:                                               ; preds = %10
  %13 = add nuw i32 %.val.i.i, 1
  store i32 %13, ptr %7, align 4, !tbaa !4
  br label %lean_array_uget.exit

14:                                               ; preds = %10
  %.not.i.i = icmp eq i32 %.val.i.i, 0
  br i1 %.not.i.i, label %lean_array_uget.exit, label %15

15:                                               ; preds = %14
  tail call void @lean_inc_ref_cold(ptr noundef nonnull %7) #6
  br label %lean_array_uget.exit

lean_array_uget.exit:                             ; preds = %.lr.ph, %12, %14, %15
  %.val.i.i27 = load i32, ptr %.02345, align 4, !tbaa !4
  %16 = icmp eq i32 %.val.i.i27, 1
  br i1 %16, label %lean_ensure_exclusive_array.exit.i, label %17

17:                                               ; preds = %lean_array_uget.exit
  %18 = tail call ptr @lean_copy_expand_array(ptr noundef nonnull %.02345, i1 noundef zeroext false) #6
  br label %lean_ensure_exclusive_array.exit.i

lean_ensure_exclusive_array.exit.i:               ; preds = %17, %lean_array_uget.exit
  %.0.i.i = phi ptr [ %18, %17 ], [ %.02345, %lean_array_uget.exit ]
  %19 = getelementptr inbounds nuw i8, ptr %.0.i.i, i64 24
  %20 = getelementptr inbounds nuw ptr, ptr %19, i64 %.02146
  %21 = load ptr, ptr %20, align 8, !tbaa !11
  %22 = ptrtoint ptr %21 to i64
  %23 = and i64 %22, 1
  %.not.i28 = icmp eq i64 %23, 0
  br i1 %.not.i28, label %24, label %lean_array_uset.exit

24:                                               ; preds = %lean_ensure_exclusive_array.exit.i
  %25 = load i32, ptr %21, align 4, !tbaa !4
  %26 = icmp sgt i32 %25, 1
  br i1 %26, label %27, label %29, !prof !13

27:                                               ; preds = %24
  %28 = add nsw i32 %25, -1
  store i32 %28, ptr %21, align 4, !tbaa !4
  br label %lean_array_uset.exit

29:                                               ; preds = %24
  %.not.i.i29 = icmp eq i32 %25, 0
  br i1 %.not.i.i29, label %lean_array_uset.exit, label %30

30:                                               ; preds = %29
  tail call void @lean_dec_ref_cold(ptr noundef nonnull %21) #6
  br label %lean_array_uset.exit

lean_array_uset.exit:                             ; preds = %lean_ensure_exclusive_array.exit.i, %27, %29, %30
  store ptr inttoptr (i64 1 to ptr), ptr %20, align 8, !tbaa !11
  %31 = tail call ptr @l_Lean_Meta_FVarSubst_get(ptr noundef %0, ptr noundef %7) #6
  %32 = tail call ptr @l_Lean_Expr_fvarId_x21(ptr noundef %31) #6
  %33 = ptrtoint ptr %31 to i64
  %34 = and i64 %33, 1
  %.not43 = icmp eq i64 %34, 0
  br i1 %.not43, label %35, label %lean_dec.exit

35:                                               ; preds = %lean_array_uset.exit
  %36 = load i32, ptr %31, align 4, !tbaa !4
  %37 = icmp sgt i32 %36, 1
  br i1 %37, label %38, label %40, !prof !13

38:                                               ; preds = %35
  %39 = add nsw i32 %36, -1
  store i32 %39, ptr %31, align 4, !tbaa !4
  br label %lean_dec.exit

40:                                               ; preds = %35
  %.not.i = icmp eq i32 %36, 0
  br i1 %.not.i, label %lean_dec.exit, label %41

41:                                               ; preds = %40
  tail call void @lean_dec_ref_cold(ptr noundef nonnull %31) #6
  br label %lean_dec.exit

lean_dec.exit:                                    ; preds = %41, %40, %38, %lean_array_uset.exit
  %42 = add nuw i64 %.02146, 1
  %.val.i.i30 = load i32, ptr %.0.i.i, align 4, !tbaa !4
  %43 = icmp eq i32 %.val.i.i30, 1
  br i1 %43, label %lean_ensure_exclusive_array.exit.i31, label %44

44:                                               ; preds = %lean_dec.exit
  %45 = tail call ptr @lean_copy_expand_array(ptr noundef nonnull %.0.i.i, i1 noundef zeroext false) #6
  br label %lean_ensure_exclusive_array.exit.i31

lean_ensure_exclusive_array.exit.i31:             ; preds = %44, %lean_dec.exit
  %.0.i.i32 = phi ptr [ %45, %44 ], [ %.0.i.i, %lean_dec.exit ]
  %46 = getelementptr inbounds nuw i8, ptr %.0.i.i32, i64 24
  %47 = getelementptr inbounds nuw ptr, ptr %46, i64 %.02146
  %48 = load ptr, ptr %47, align 8, !tbaa !11
  %49 = ptrtoint ptr %48 to i64
  %50 = and i64 %49, 1
  %.not.i33 = icmp eq i64 %50, 0
  br i1 %.not.i33, label %51, label %58

51:                                               ; preds = %lean_ensure_exclusive_array.exit.i31
  %52 = load i32, ptr %48, align 4, !tbaa !4
  %53 = icmp sgt i32 %52, 1
  br i1 %53, label %54, label %56, !prof !13

54:                                               ; preds = %51
  %55 = add nsw i32 %52, -1
  store i32 %55, ptr %48, align 4, !tbaa !4
  br label %58

56:                                               ; preds = %51
  %.not.i.i34 = icmp eq i32 %52, 0
  br i1 %.not.i.i34, label %58, label %57

57:                                               ; preds = %56
  tail call void @lean_dec_ref_cold(ptr noundef nonnull %48) #6
  br label %58

58:                                               ; preds = %57, %56, %54, %lean_ensure_exclusive_array.exit.i31
  store ptr %32, ptr %47, align 8, !tbaa !11
  %exitcond.not = icmp eq i64 %42, %1
  br i1 %exitcond.not, label %._crit_edge, label %.lr.ph

._crit_edge:                                      ; preds = %58, %4
  %.023.lcssa = phi ptr [ %3, %4 ], [ %.0.i.i32, %58 ]
  ret ptr %.023.lcssa
}